target datalayout = "e-m:e-p270:32:32-p271:32:32-p272:64:64-i64:64-i128:128-f80:128-n8:16:32:64-S128"
target triple = "x86_64-pc-linux-gnu"

@.str.116 = private unnamed_addr constant [10 x i8] c"CPUVendor\00", align 1
@.str.117 = private unnamed_addr constant [16 x i8] c"CPUFamilyNumber\00", align 1
@.str.118 = private unnamed_addr constant [15 x i8] c"CPUModelNumber\00", align 1
@.str.149 = private unnamed_addr constant [11 x i8] c"model name\00", align 1
@.str.150 = private unnamed_addr constant [9 x i8] c"CPUModel\00", align 1
@.str.151 = private unnamed_addr constant [6 x i8] c"model\00", align 1
@.str.175 = private unnamed_addr constant [7 x i8] c"vendor\00", align 1
@.str.187 = private unnamed_addr constant [7 x i8] c"family\00", align 1

; Function Attrs: nounwind uwtable
define internal i32 @hwloc_linux_parse_cpuinfo_ia64(ptr noundef %0, ptr noundef %1, ptr noundef %2, i32 noundef %3) #0 {
  %5 = alloca ptr, align 8
  %6 = alloca ptr, align 8
  %7 = alloca ptr, align 8
  %8 = alloca i32, align 4
  store ptr %0, ptr %5, align 8, !tbaa !3
  store ptr %1, ptr %6, align 8, !tbaa !3
  store ptr %2, ptr %7, align 8, !tbaa !232
  store i32 %3, ptr %8, align 4, !tbaa !10
  %9 = load ptr, ptr %5, align 8, !tbaa !3
  %10 = call i32 @strcmp(ptr noundef @.str.175, ptr noundef %9) #17
  %11 = icmp ne i32 %10, 0
  br i1 %11, label %22, label %12

12:                                               ; preds = %4
  %13 = load ptr, ptr %6, align 8, !tbaa !3
  %14 = getelementptr inbounds i8, ptr %13, i64 0
  %15 = load i8, ptr %14, align 1, !tbaa !54
  %16 = icmp ne i8 %15, 0
  br i1 %16, label %17, label %21

17:                                               ; preds = %12
  %18 = load ptr, ptr %7, align 8, !tbaa !232
  %19 = load ptr, ptr %6, align 8, !tbaa !3
  %20 = call i32 @hwloc__add_info(ptr noundef %18, ptr noundef @.str.116, ptr noundef %19)
  br label %21

21:                                               ; preds = %17, %12
  br label %67

22:                                               ; preds = %4
  %23 = load ptr, ptr %5, align 8, !tbaa !3
  %24 = call i32 @strcmp(ptr noundef @.str.149, ptr noundef %23) #17
  %25 = icmp ne i32 %24, 0
  br i1 %25, label %36, label %26

26:                                               ; preds = %22
  %27 = load ptr, ptr %6, align 8, !tbaa !3
  %28 = getelementptr inbounds i8, ptr %27, i64 0
  %29 = load i8, ptr %28, align 1, !tbaa !54
  %30 = icmp ne i8 %29, 0
  br i1 %30, label %31, label %35

31:                                               ; preds = %26
  %32 = load ptr, ptr %7, align 8, !tbaa !232
  %33 = load ptr, ptr %6, align 8, !tbaa !3
  %34 = call i32 @hwloc__add_info(ptr noundef %32, ptr noundef @.str.150, ptr noundef %33)
  br label %35

35:                                               ; preds = %31, %26
  br label %66

36:                                               ; preds = %22
  %37 = load ptr, ptr %5, align 8, !tbaa !3
  %38 = call i32 @strcmp(ptr noundef @.str.151, ptr noundef %37) #17
  %39 = icmp ne i32 %38, 0
  br i1 %39, label %50, label %40

40:                                               ; preds = %36
  %41 = load ptr, ptr %6, align 8, !tbaa !3
  %42 = getelementptr inbounds i8, ptr %41, i64 0
  %43 = load i8, ptr %42, align 1, !tbaa !54
  %44 = icmp ne i8 %43, 0
  br i1 %44, label %45, label %49

45:                                               ; preds = %40
  %46 = load ptr, ptr %7, align 8, !tbaa !232
  %47 = load ptr, ptr %6, align 8, !tbaa !3
  %48 = call i32 @hwloc__add_info(ptr noundef %46, ptr noundef @.str.118, ptr noundef %47)
  br label %49

49:                                               ; preds = %45, %40
  br label %65

50:                                               ; preds = %36
  %51 = load ptr, ptr %5, align 8, !tbaa !3
  %52 = call i32 @strcmp(ptr noundef @.str.187, ptr noundef %51) #17
  %53 = icmp ne i32 %52, 0
  br i1 %53, label %64, label %54

54:                                               ; preds = %50
  %55 = load ptr, ptr %6, align 8, !tbaa !3
  %56 = getelementptr inbounds i8, ptr %55, i64 0
  %57 = load i8, ptr %56, align 1, !tbaa !54
  %58 = icmp ne i8 %57, 0
  br i1 %58, label %59, label %63

59:                                               ; preds = %54
  %60 = load ptr, ptr %7, align 8, !tbaa !232
  %61 = load ptr, ptr %6, align 8, !tbaa !3
  %62 = call i32 @hwloc__add_info(ptr noundef %60, ptr noundef @.str.117, ptr noundef %61)
  br label %63

63:                                               ; preds = %59, %54
  br label %64

64:                                               ; preds = %63, %50
  br label %65

65:                                               ; preds = %64, %49
  br label %66

66:                                               ; preds = %65, %35
  br label %67

67:                                               ; preds = %66, %21
  ret i32 0
}