; Function Attrs: nounwind uwtable
define internal noundef i32 @hwloc_linux_parse_cpuinfo_ia64(ptr noundef readonly captures(none) %0, ptr noundef %1, ptr noundef %2, i32 %3) unnamed_addr #0 {
  %5 = tail call i32 @strcmp(ptr noundef nonnull dereferenceable(7) @.str.175, ptr noundef nonnull dereferenceable(1) %0) #30
  %.not = icmp eq i32 %5, 0
  br i1 %.not, label %6, label %8

6:                                                ; preds = %4
  %7 = load i8, ptr %1, align 1, !tbaa !7
  %.not16 = icmp eq i8 %7, 0
  br i1 %.not16, label %21, label %.sink.split

8:                                                ; preds = %4
  %9 = tail call i32 @strcmp(ptr noundef nonnull dereferenceable(11) @.str.149, ptr noundef nonnull dereferenceable(1) %0) #30
  %.not17 = icmp eq i32 %9, 0
  br i1 %.not17, label %10, label %12

10:                                               ; preds = %8
  %11 = load i8, ptr %1, align 1, !tbaa !7
  %.not18 = icmp eq i8 %11, 0
  br i1 %.not18, label %21, label %.sink.split

12:                                               ; preds = %8
  %13 = tail call i32 @strcmp(ptr noundef nonnull dereferenceable(6) @.str.151, ptr noundef nonnull dereferenceable(1) %0) #30
  %.not19 = icmp eq i32 %13, 0
  br i1 %.not19, label %14, label %16

14:                                               ; preds = %12
  %15 = load i8, ptr %1, align 1, !tbaa !7
  %.not20 = icmp eq i8 %15, 0
  br i1 %.not20, label %21, label %.sink.split

16:                                               ; preds = %12
  %17 = tail call i32 @strcmp(ptr noundef nonnull dereferenceable(7) @.str.187, ptr noundef nonnull dereferenceable(1) %0) #30
  %.not21 = icmp eq i32 %17, 0
  br i1 %.not21, label %18, label %21

18:                                               ; preds = %16
  %19 = load i8, ptr %1, align 1, !tbaa !7
  %.not22 = icmp eq i8 %19, 0
  br i1 %.not22, label %21, label %.sink.split

.sink.split:                                      ; preds = %18, %14, %10, %6
  %.str.150.sink = phi ptr [ @.str.116, %6 ], [ @.str.150, %10 ], [ @.str.118, %14 ], [ @.str.117, %18 ]
  %20 = tail call i32 @hwloc__add_info(ptr noundef %2, ptr noundef nonnull %.str.150.sink, ptr noundef nonnull %1) #27
  br label %21

21:                                               ; preds = %.sink.split, %10, %16, %18, %14, %6
  ret i32 0
}